target datalayout = "e-m:e-p270:32:32-p271:32:32-p272:64:64-i64:64-i128:128-f80:128-n8:16:32:64-S128"
target triple = "x86_64-pc-linux-gnu"

%struct.internal_hooks = type { ptr, ptr, ptr }
%struct.printbuffer = type { ptr, i64, i64, i64, i32, i32, %struct.internal_hooks }

@global_hooks = internal global %struct.internal_hooks { ptr @malloc, ptr @free, ptr @realloc }, align 8

; Function Attrs: nounwind sspstrong uwtable
define i32 @cJSON_PrintPreallocated(ptr noundef %0, ptr noundef %1, i32 noundef %2, i32 noundef %3) #0 {
  %5 = alloca i32, align 4
  %6 = alloca ptr, align 8
  %7 = alloca ptr, align 8
  %8 = alloca i32, align 4
  %9 = alloca i32, align 4
  %10 = alloca %struct.printbuffer, align 8
  %11 = alloca i32, align 4
  store ptr %0, ptr %6, align 8, !tbaa !11
  store ptr %1, ptr %7, align 8, !tbaa !33
  store i32 %2, ptr %8, align 4, !tbaa !40
  store i32 %3, ptr %9, align 4, !tbaa !40
  call void @llvm.lifetime.start.p0(i64 64, ptr %10) #10
  call void @llvm.memset.p0.i64(ptr align 8 %10, i8 0, i64 64, i1 false)
  %12 = load i32, ptr %8, align 4, !tbaa !40
  %13 = icmp slt i32 %12, 0
  br i1 %13, label %17, label %14

14:                                               ; preds = %4
  %15 = load ptr, ptr %7, align 8, !tbaa !33
  %16 = icmp eq ptr %15, null
  br i1 %16, label %17, label %18

17:                                               ; preds = %14, %4
  store i32 0, ptr %5, align 4
  store i32 1, ptr %11, align 4
  br label %31

18:                                               ; preds = %14
  %19 = load ptr, ptr %7, align 8, !tbaa !33
  %20 = getelementptr inbounds nuw %struct.printbuffer, ptr %10, i32 0, i32 0
  store ptr %19, ptr %20, align 8, !tbaa !48
  %21 = load i32, ptr %8, align 4, !tbaa !40
  %22 = sext i32 %21 to i64
  %23 = getelementptr inbounds nuw %struct.printbuffer, ptr %10, i32 0, i32 1
  store i64 %22, ptr %23, align 8, !tbaa !50
  %24 = getelementptr inbounds nuw %struct.printbuffer, ptr %10, i32 0, i32 2
  store i64 0, ptr %24, align 8, !tbaa !52
  %25 = getelementptr inbounds nuw %struct.printbuffer, ptr %10, i32 0, i32 4
  store i32 1, ptr %25, align 8, !tbaa !53
  %26 = load i32, ptr %9, align 4, !tbaa !40
  %27 = getelementptr inbounds nuw %struct.printbuffer, ptr %10, i32 0, i32 5
  store i32 %26, ptr %27, align 4, !tbaa !51
  %28 = getelementptr inbounds nuw %struct.printbuffer, ptr %10, i32 0, i32 6
  call void @llvm.memcpy.p0.p0.i64(ptr align 8 %28, ptr align 8 @global_hooks, i64 24, i1 false), !tbaa.struct !45
  %29 = load ptr, ptr %6, align 8, !tbaa !11
  %30 = call i32 @print_value(ptr noundef %29, ptr noundef %10)
  store i32 %30, ptr %5, align 4
  store i32 1, ptr %11, align 4
  br label %31

31:                                               ; preds = %18, %17
  call void @llvm.lifetime.end.p0(i64 64, ptr %10) #10
  %32 = load i32, ptr %5, align 4
  ret i32 %32
}