; Function Attrs: nounwind sspstrong uwtable
define range(i32 0, 2) i32 @cJSON_PrintPreallocated(ptr noundef %0, ptr noundef %1, i32 noundef %2, i32 noundef %3) local_unnamed_addr #8 {
  %5 = alloca %struct.printbuffer, align 8
  call void @llvm.lifetime.start.p0(i64 64, ptr nonnull %5) #31
  %6 = getelementptr inbounds nuw i8, ptr %5, i64 24
  store i64 0, ptr %6, align 8
  %7 = icmp slt i32 %2, 0
  %8 = icmp eq ptr %1, null
  %or.cond = or i1 %8, %7
  br i1 %or.cond, label %17, label %9

9:                                                ; preds = %4
  store ptr %1, ptr %5, align 8, !tbaa !41
  %10 = zext nneg i32 %2 to i64
  %11 = getelementptr inbounds nuw i8, ptr %5, i64 8
  store i64 %10, ptr %11, align 8, !tbaa !43
  %12 = getelementptr inbounds nuw i8, ptr %5, i64 16
  store i64 0, ptr %12, align 8, !tbaa !45
  %13 = getelementptr inbounds nuw i8, ptr %5, i64 32
  store i32 1, ptr %13, align 8, !tbaa !47
  %14 = getelementptr inbounds nuw i8, ptr %5, i64 36
  store i32 %3, ptr %14, align 4, !tbaa !44
  %15 = getelementptr inbounds nuw i8, ptr %5, i64 40
  call void @llvm.memcpy.p0.p0.i64(ptr noundef nonnull align 8 dereferenceable(24) %15, ptr noundef nonnull align 8 dereferenceable(24) @global_hooks, i64 24, i1 false), !tbaa.struct !31
  %16 = call fastcc i32 @print_value(ptr noundef %0, ptr noundef %5)
  br label %17

17:                                               ; preds = %4, %9
  %.0 = phi i32 [ %16, %9 ], [ 0, %4 ]
  call void @llvm.lifetime.end.p0(i64 64, ptr nonnull %5) #31
  ret i32 %.0
}